target datalayout = "e-m:e-p270:32:32-p271:32:32-p272:64:64-i64:64-i128:128-f80:128-n8:16:32:64-S128"
target triple = "x86_64-pc-linux-gnu"

%struct._zend_executor_globals = type { %struct._zval_struct, %struct._zval_struct, [32 x ptr], ptr, ptr, %struct._zend_array, %struct._zend_array, ptr, i32, i32, ptr, ptr, ptr, ptr, ptr, ptr, i64, ptr, ptr, i32, i32, i64, i32, i32, i32, i8, i8, %struct.zend_atomic_bool_s, %struct.zend_atomic_bool_s, ptr, i64, ptr, ptr, %struct._zend_array, %struct._zend_array, i32, i8, %struct._zval_struct, %struct._zval_struct, %struct._zend_stack, %struct._zend_stack, %struct._zend_stack, ptr, i32, i32, i64, ptr, ptr, ptr, %struct._zend_objects_store, ptr, ptr, ptr, [3 x %struct._zend_op], ptr, i8, i8, i64, i32, i32, ptr, [16 x %struct._HashTableIterator], ptr, %union._zend_function, %struct._zend_op, %struct._zend_array, i64, %struct.zend_get_gc_buffer, ptr, ptr, ptr, i64, i8, i32, ptr, ptr, i64, %struct._zend_call_stack, i64, i64, [6 x ptr] }
%struct.zend_atomic_bool_s = type { i8 }
%struct._zval_struct = type { %union._zend_value, %union.anon, %union.anon.2 }
%union._zend_value = type { i64 }
%union.anon = type { i32 }
%union.anon.2 = type { i32 }
%struct._zend_stack = type { i32, i32, i32, ptr }
%struct._zend_objects_store = type { ptr, i32, i32, i32 }
%struct._HashTableIterator = type { ptr, i32, i32 }
%union._zend_function = type { %struct._zend_op_array }
%struct._zend_op_array = type { i8, [3 x i8], i32, ptr, ptr, ptr, i32, i32, ptr, ptr, ptr, ptr, i32, i32, i32, i32, ptr, ptr, ptr, ptr, ptr, i32, i32, ptr, ptr, ptr, i32, i32, i32, i32, ptr, ptr, [6 x ptr] }
%struct._zend_op = type { ptr, %union._znode_op, %union._znode_op, %union._znode_op, i32, i32, i8, i8, i8, i8 }
%union._znode_op = type { i32 }
%struct._zend_array = type { %struct._zend_refcounted_h, %union.anon.4, i32, %union.anon.6, i32, i32, i32, i32, i64, ptr }
%struct._zend_refcounted_h = type { i32, %union.anon.3 }
%union.anon.3 = type { i32 }
%union.anon.4 = type { i32 }
%union.anon.6 = type { ptr }
%struct.zend_get_gc_buffer = type { ptr, ptr, ptr }
%struct._zend_call_stack = type { ptr, i64 }
%struct._zend_execute_data = type { ptr, ptr, ptr, ptr, %struct._zval_struct, ptr, ptr, ptr, ptr }
%struct.php_sxe_object = type { ptr, ptr, ptr, ptr, %struct.anon.8, %struct._zval_struct, ptr, %struct._zend_object }
%struct.anon.8 = type { ptr, ptr, i32, i32, %struct._zval_struct }
%struct._zend_object = type { %struct._zend_refcounted_h, i32, ptr, ptr, ptr, [1 x %struct._zval_struct] }
%struct._zend_reference = type { %struct._zend_refcounted_h, %struct._zval_struct, %union.zend_property_info_source_list }
%union.zend_property_info_source_list = type { ptr }
%struct.anon.0 = type { i8, i8, %union.anon.1 }
%union.anon.1 = type { i16 }

@executor_globals = external global %struct._zend_executor_globals, align 8

; Function Attrs: nounwind uwtable
define internal ptr @php_sxe_fetch_object(ptr noundef %0) #0 {
  %2 = alloca ptr, align 8
  store ptr %0, ptr %2, align 8
  %3 = load ptr, ptr %2, align 8
  %4 = getelementptr inbounds i8, ptr %3, i64 -96
  ret ptr %4
}

; Function Attrs: nounwind uwtable
define hidden void @zim_SimpleXMLElement_getChildren(ptr noundef %0, ptr noundef %1) #0 {
  %3 = alloca ptr, align 8
  %4 = alloca ptr, align 8
  %5 = alloca ptr, align 8
  %6 = alloca ptr, align 8
  %7 = alloca ptr, align 8
  %8 = alloca ptr, align 8
  %9 = alloca ptr, align 8
  %10 = alloca ptr, align 8
  %11 = alloca ptr, align 8
  %12 = alloca ptr, align 8
  %13 = alloca ptr, align 8
  %14 = alloca ptr, align 8
  %15 = alloca i32, align 4
  store ptr %0, ptr %8, align 8
  store ptr %1, ptr %9, align 8
  %16 = load ptr, ptr %8, align 8
  %17 = getelementptr inbounds %struct._zend_execute_data, ptr %16, i32 0, i32 4
  %18 = getelementptr inbounds %struct._zval_struct, ptr %17, i32 0, i32 0
  %19 = load ptr, ptr %18, align 8
  %20 = call ptr @php_sxe_fetch_object(ptr noundef %19)
  store ptr %20, ptr %10, align 8
  %21 = load ptr, ptr %8, align 8
  %22 = getelementptr inbounds %struct._zend_execute_data, ptr %21, i32 0, i32 4
  %23 = getelementptr inbounds %struct._zval_struct, ptr %22, i32 0, i32 2
  %24 = load i32, ptr %23, align 4
  %25 = icmp eq i32 %24, 0
  %26 = xor i1 %25, true
  %27 = xor i1 %26, true
  %28 = zext i1 %27 to i32
  %29 = sext i32 %28 to i64
  %30 = icmp ne i64 %29, 0
  br i1 %30, label %31, label %32

31:                                               ; preds = %2
  br label %33

32:                                               ; preds = %2
  call void @zend_wrong_parameters_none_error()
  br label %33

33:                                               ; preds = %32, %31
  %34 = phi i32 [ 0, %31 ], [ -1, %32 ]
  %35 = icmp eq i32 %34, -1
  br i1 %35, label %36, label %41

36:                                               ; preds = %33
  br label %37

37:                                               ; preds = %36
  %38 = load ptr, ptr getelementptr inbounds (%struct._zend_executor_globals, ptr @executor_globals, i32 0, i32 50), align 8
  %39 = icmp ne ptr %38, null
  call void @llvm.assume(i1 %39)
  br label %137

40:                                               ; No predecessors!
  br label %41

41:                                               ; preds = %40, %33
  %42 = load ptr, ptr %10, align 8
  %43 = getelementptr inbounds %struct.php_sxe_object, ptr %42, i32 0, i32 4
  %44 = getelementptr inbounds %struct.anon.8, ptr %43, i32 0, i32 4
  store ptr %44, ptr %7, align 8
  %45 = load ptr, ptr %7, align 8
  %46 = getelementptr inbounds %struct._zval_struct, ptr %45, i32 0, i32 1
  %47 = load i8, ptr %46, align 8
  %48 = zext i8 %47 to i32
  %49 = icmp eq i32 %48, 0
  br i1 %49, label %56, label %50

50:                                               ; preds = %41
  %51 = load ptr, ptr %10, align 8
  %52 = getelementptr inbounds %struct.php_sxe_object, ptr %51, i32 0, i32 4
  %53 = getelementptr inbounds %struct.anon.8, ptr %52, i32 0, i32 3
  %54 = load i32, ptr %53, align 4
  %55 = icmp eq i32 %54, 3
  br i1 %55, label %56, label %57

56:                                               ; preds = %50, %41
  br label %137

57:                                               ; preds = %50
  br label %58

58:                                               ; preds = %57
  br label %59

59:                                               ; preds = %58
  %60 = load ptr, ptr %10, align 8
  %61 = getelementptr inbounds %struct.php_sxe_object, ptr %60, i32 0, i32 4
  %62 = getelementptr inbounds %struct.anon.8, ptr %61, i32 0, i32 4
  store ptr %62, ptr %11, align 8
  %63 = load ptr, ptr %11, align 8
  %64 = getelementptr inbounds %struct._zval_struct, ptr %63, i32 0, i32 1
  %65 = load i32, ptr %64, align 8
  %66 = and i32 %65, 65280
  %67 = icmp ne i32 %66, 0
  br i1 %67, label %68, label %117

68:                                               ; preds = %59
  %69 = load ptr, ptr %11, align 8
  %70 = getelementptr inbounds %struct._zval_struct, ptr %69, i32 0, i32 1
  %71 = load i32, ptr %70, align 8
  %72 = and i32 %71, 255
  %73 = icmp eq i32 %72, 10
  %74 = xor i1 %73, true
  %75 = xor i1 %74, true
  %76 = zext i1 %75 to i32
  %77 = sext i32 %76 to i64
  %78 = icmp ne i64 %77, 0
  br i1 %78, label %79, label %103

79:                                               ; preds = %68
  %80 = load ptr, ptr %11, align 8
  %81 = getelementptr inbounds %struct._zval_struct, ptr %80, i32 0, i32 0
  %82 = load ptr, ptr %81, align 8
  %83 = getelementptr inbounds %struct._zend_reference, ptr %82, i32 0, i32 1
  store ptr %83, ptr %11, align 8
  %84 = load ptr, ptr %11, align 8
  %85 = getelementptr inbounds %struct._zval_struct, ptr %84, i32 0, i32 1
  %86 = load i32, ptr %85, align 8
  %87 = and i32 %86, 65280
  %88 = icmp ne i32 %87, 0
  br i1 %88, label %89, label %102

89:                                               ; preds = %79
  %90 = load ptr, ptr %11, align 8
  store ptr %90, ptr %5, align 8
  %91 = load ptr, ptr %5, align 8
  %92 = getelementptr inbounds %struct._zval_struct, ptr %91, i32 0, i32 1
  %93 = getelementptr inbounds %struct.anon.0, ptr %92, i32 0, i32 1
  %94 = load i8, ptr %93, align 1
  %95 = zext i8 %94 to i32
  %96 = icmp ne i32 %95, 0
  call void @llvm.assume(i1 %96)
  %97 = load ptr, ptr %5, align 8
  %98 = load ptr, ptr %97, align 8
  store ptr %98, ptr %4, align 8
  %99 = load ptr, ptr %4, align 8
  %100 = load i32, ptr %99, align 4
  %101 = add i32 %100, 1
  store i32 %101, ptr %99, align 4
  br label %102

102:                                              ; preds = %89, %79
  br label %116

103:                                              ; preds = %68
  %104 = load ptr, ptr %11, align 8
  store ptr %104, ptr %6, align 8
  %105 = load ptr, ptr %6, align 8
  %106 = getelementptr inbounds %struct._zval_struct, ptr %105, i32 0, i32 1
  %107 = getelementptr inbounds %struct.anon.0, ptr %106, i32 0, i32 1
  %108 = load i8, ptr %107, align 1
  %109 = zext i8 %108 to i32
  %110 = icmp ne i32 %109, 0
  call void @llvm.assume(i1 %110)
  %111 = load ptr, ptr %6, align 8
  %112 = load ptr, ptr %111, align 8
  store ptr %112, ptr %3, align 8
  %113 = load ptr, ptr %3, align 8
  %114 = load i32, ptr %113, align 4
  %115 = add i32 %114, 1
  store i32 %115, ptr %113, align 4
  br label %116

116:                                              ; preds = %103, %102
  br label %117

117:                                              ; preds = %116, %59
  br label %118

118:                                              ; preds = %117
  %119 = load ptr, ptr %9, align 8
  store ptr %119, ptr %12, align 8
  %120 = load ptr, ptr %11, align 8
  store ptr %120, ptr %13, align 8
  %121 = load ptr, ptr %13, align 8
  %122 = getelementptr inbounds %struct._zval_struct, ptr %121, i32 0, i32 0
  %123 = load ptr, ptr %122, align 8
  store ptr %123, ptr %14, align 8
  %124 = load ptr, ptr %13, align 8
  %125 = getelementptr inbounds %struct._zval_struct, ptr %124, i32 0, i32 1
  %126 = load i32, ptr %125, align 8
  store i32 %126, ptr %15, align 4
  br label %127

127:                                              ; preds = %118
  %128 = load ptr, ptr %14, align 8
  %129 = load ptr, ptr %12, align 8
  %130 = getelementptr inbounds %struct._zval_struct, ptr %129, i32 0, i32 0
  store ptr %128, ptr %130, align 8
  %131 = load i32, ptr %15, align 4
  %132 = load ptr, ptr %12, align 8
  %133 = getelementptr inbounds %struct._zval_struct, ptr %132, i32 0, i32 1
  store i32 %131, ptr %133, align 8
  br label %134

134:                                              ; preds = %127
  br label %135

135:                                              ; preds = %134
  br label %136

136:                                              ; preds = %135
  br label %137

137:                                              ; preds = %136, %56, %37
  ret void
}